target datalayout = "e-m:e-p270:32:32-p271:32:32-p272:64:64-i64:64-i128:128-f80:128-n8:16:32:64-S128"
target triple = "x86_64-pc-linux-gnu"

%"class.pxrInternal_v0_24__pxrReserved__::TsSpline" = type { %"class.std::shared_ptr" }
%"class.std::shared_ptr" = type { %"class.std::__shared_ptr" }
%"class.std::__shared_ptr" = type { ptr, %"class.std::__shared_count" }
%"class.std::__shared_count" = type { ptr }
%"class.pxrInternal_v0_24__pxrReserved__::GfInterval" = type { %"struct.pxrInternal_v0_24__pxrReserved__::GfInterval::_Bound", %"struct.pxrInternal_v0_24__pxrReserved__::GfInterval::_Bound" }
%"struct.pxrInternal_v0_24__pxrReserved__::GfInterval::_Bound" = type <{ double, i8, [7 x i8] }>
%"class.pxrInternal_v0_24__pxrReserved__::TsLoopParams" = type { i8, [7 x i8], %"class.pxrInternal_v0_24__pxrReserved__::GfInterval", %"class.pxrInternal_v0_24__pxrReserved__::GfInterval", double }

; Function Attrs: mustprogress nounwind uwtable
define linkonce_odr noundef ptr @_ZNKSt12__shared_ptrIN32pxrInternal_v0_24__pxrReserved__18TsSpline_KeyFramesELN9__gnu_cxx12_Lock_policyE2EE3getEv(ptr noundef nonnull align 8 dereferenceable(16) %0) #5 comdat align 2 {
  %2 = alloca ptr, align 8
  store ptr %0, ptr %2, align 8
  %3 = load ptr, ptr %2, align 8
  %4 = getelementptr inbounds nuw %"class.std::__shared_ptr", ptr %3, i32 0, i32 0
  %5 = load ptr, ptr %4, align 8
  ret ptr %5
}

; Function Attrs: mustprogress nounwind uwtable
define linkonce_odr noundef ptr @_ZNKSt19__shared_ptr_accessIN32pxrInternal_v0_24__pxrReserved__18TsSpline_KeyFramesELN9__gnu_cxx12_Lock_policyE2ELb0ELb0EE6_M_getEv(ptr noundef nonnull align 1 dereferenceable(1) %0) #5 comdat align 2 {
  %2 = alloca ptr, align 8
  store ptr %0, ptr %2, align 8
  %3 = load ptr, ptr %2, align 8
  %4 = call noundef ptr @_ZNKSt12__shared_ptrIN32pxrInternal_v0_24__pxrReserved__18TsSpline_KeyFramesELN9__gnu_cxx12_Lock_policyE2EE3getEv(ptr noundef nonnull align 8 dereferenceable(16) %3) #3
  ret ptr %4
}

; Function Attrs: mustprogress nounwind uwtable
define linkonce_odr noundef ptr @_ZNKSt19__shared_ptr_accessIN32pxrInternal_v0_24__pxrReserved__18TsSpline_KeyFramesELN9__gnu_cxx12_Lock_policyE2ELb0ELb0EEptEv(ptr noundef nonnull align 1 dereferenceable(1) %0) #5 comdat align 2 {
  %2 = alloca ptr, align 8
  store ptr %0, ptr %2, align 8
  %3 = load ptr, ptr %2, align 8
  %4 = call noundef ptr @_ZNKSt19__shared_ptr_accessIN32pxrInternal_v0_24__pxrReserved__18TsSpline_KeyFramesELN9__gnu_cxx12_Lock_policyE2ELb0ELb0EE6_M_getEv(ptr noundef nonnull align 1 dereferenceable(1) %3) #3
  ret ptr %4
}

; Function Attrs: mustprogress nounwind uwtable
define linkonce_odr noundef zeroext i1 @_ZNK32pxrInternal_v0_24__pxrReserved__10GfInterval8ContainsEd(ptr noundef nonnull align 8 dereferenceable(32) %0, double noundef %1) #5 comdat align 2 {
  %3 = alloca ptr, align 8
  %4 = alloca double, align 8
  store ptr %0, ptr %3, align 8
  store double %1, ptr %4, align 8
  %5 = load ptr, ptr %3, align 8
  %6 = load double, ptr %4, align 8
  %7 = getelementptr inbounds nuw %"class.pxrInternal_v0_24__pxrReserved__::GfInterval", ptr %5, i32 0, i32 0
  %8 = getelementptr inbounds nuw %"struct.pxrInternal_v0_24__pxrReserved__::GfInterval::_Bound", ptr %7, i32 0, i32 0
  %9 = load double, ptr %8, align 8
  %10 = fcmp ogt double %6, %9
  br i1 %10, label %22, label %11

11:                                               ; preds = %2
  %12 = load double, ptr %4, align 8
  %13 = getelementptr inbounds nuw %"class.pxrInternal_v0_24__pxrReserved__::GfInterval", ptr %5, i32 0, i32 0
  %14 = getelementptr inbounds nuw %"struct.pxrInternal_v0_24__pxrReserved__::GfInterval::_Bound", ptr %13, i32 0, i32 0
  %15 = load double, ptr %14, align 8
  %16 = fcmp oeq double %12, %15
  br i1 %16, label %17, label %43

17:                                               ; preds = %11
  %18 = getelementptr inbounds nuw %"class.pxrInternal_v0_24__pxrReserved__::GfInterval", ptr %5, i32 0, i32 0
  %19 = getelementptr inbounds nuw %"struct.pxrInternal_v0_24__pxrReserved__::GfInterval::_Bound", ptr %18, i32 0, i32 1
  %20 = load i8, ptr %19, align 8
  %21 = trunc i8 %20 to i1
  br i1 %21, label %22, label %43

22:                                               ; preds = %17, %2
  %23 = load double, ptr %4, align 8
  %24 = getelementptr inbounds nuw %"class.pxrInternal_v0_24__pxrReserved__::GfInterval", ptr %5, i32 0, i32 1
  %25 = getelementptr inbounds nuw %"struct.pxrInternal_v0_24__pxrReserved__::GfInterval::_Bound", ptr %24, i32 0, i32 0
  %26 = load double, ptr %25, align 8
  %27 = fcmp olt double %23, %26
  br i1 %27, label %41, label %28

28:                                               ; preds = %22
  %29 = load double, ptr %4, align 8
  %30 = getelementptr inbounds nuw %"class.pxrInternal_v0_24__pxrReserved__::GfInterval", ptr %5, i32 0, i32 1
  %31 = getelementptr inbounds nuw %"struct.pxrInternal_v0_24__pxrReserved__::GfInterval::_Bound", ptr %30, i32 0, i32 0
  %32 = load double, ptr %31, align 8
  %33 = fcmp oeq double %29, %32
  br i1 %33, label %34, label %39

34:                                               ; preds = %28
  %35 = getelementptr inbounds nuw %"class.pxrInternal_v0_24__pxrReserved__::GfInterval", ptr %5, i32 0, i32 1
  %36 = getelementptr inbounds nuw %"struct.pxrInternal_v0_24__pxrReserved__::GfInterval::_Bound", ptr %35, i32 0, i32 1
  %37 = load i8, ptr %36, align 8
  %38 = trunc i8 %37 to i1
  br label %39

39:                                               ; preds = %34, %28
  %40 = phi i1 [ false, %28 ], [ %38, %34 ]
  br label %41

41:                                               ; preds = %39, %22
  %42 = phi i1 [ true, %22 ], [ %40, %39 ]
  br label %43

43:                                               ; preds = %41, %17, %11
  %44 = phi i1 [ false, %17 ], [ false, %11 ], [ %42, %41 ]
  ret i1 %44
}

; Function Attrs: mustprogress uwtable
define void @_ZNK32pxrInternal_v0_24__pxrReserved__8TsSpline13GetLoopParamsEv(ptr dead_on_unwind noalias writable sret(%"class.pxrInternal_v0_24__pxrReserved__::TsLoopParams") align 8 %0, ptr noundef nonnull align 8 dereferenceable(16) %1) #4 align 2 {
  %3 = alloca ptr, align 8
  store ptr %1, ptr %3, align 8
  %4 = load ptr, ptr %3, align 8
  %5 = getelementptr inbounds nuw %"class.pxrInternal_v0_24__pxrReserved__::TsSpline", ptr %4, i32 0, i32 0
  %6 = call noundef ptr @_ZNKSt19__shared_ptr_accessIN32pxrInternal_v0_24__pxrReserved__18TsSpline_KeyFramesELN9__gnu_cxx12_Lock_policyE2ELb0ELb0EEptEv(ptr noundef nonnull align 1 dereferenceable(1) %5) #3
  %7 = call noundef nonnull align 8 dereferenceable(80) ptr @_ZNK32pxrInternal_v0_24__pxrReserved__18TsSpline_KeyFrames13GetLoopParamsEv(ptr noundef nonnull align 8 dereferenceable(136) %6)
  call void @llvm.memcpy.p0.p0.i64(ptr align 8 %0, ptr align 8 %7, i64 80, i1 false)
  ret void
}

; Function Attrs: mustprogress uwtable
define noundef zeroext i1 @_ZNK32pxrInternal_v0_24__pxrReserved__8TsSpline12IsTimeLoopedEd(ptr noundef nonnull align 8 dereferenceable(16) %0, double noundef %1) #4 align 2 {
  %3 = alloca ptr, align 8
  %4 = alloca double, align 8
  %5 = alloca ptr, align 8
  %6 = alloca %"class.pxrInternal_v0_24__pxrReserved__::TsLoopParams", align 8
  store ptr %0, ptr %3, align 8
  store double %1, ptr %4, align 8
  %7 = load ptr, ptr %3, align 8
  call void @_ZNK32pxrInternal_v0_24__pxrReserved__8TsSpline13GetLoopParamsEv(ptr dead_on_unwind writable sret(%"class.pxrInternal_v0_24__pxrReserved__::TsLoopParams") align 8 %6, ptr noundef nonnull align 8 dereferenceable(16) %7)
  store ptr %6, ptr %5, align 8
  %8 = load ptr, ptr %5, align 8
  %9 = call noundef zeroext i1 @_ZNK32pxrInternal_v0_24__pxrReserved__12TsLoopParams10GetLoopingEv(ptr noundef nonnull align 8 dereferenceable(80) %8)
  br i1 %9, label %10, label %21

10:                                               ; preds = %2
  %11 = load ptr, ptr %5, align 8
  %12 = call noundef nonnull align 8 dereferenceable(32) ptr @_ZNK32pxrInternal_v0_24__pxrReserved__12TsLoopParams17GetLoopedIntervalEv(ptr noundef nonnull align 8 dereferenceable(80) %11)
  %13 = load double, ptr %4, align 8
  %14 = call noundef zeroext i1 @_ZNK32pxrInternal_v0_24__pxrReserved__10GfInterval8ContainsEd(ptr noundef nonnull align 8 dereferenceable(32) %12, double noundef %13)
  br i1 %14, label %15, label %21

15:                                               ; preds = %10
  %16 = load ptr, ptr %5, align 8
  %17 = call noundef nonnull align 8 dereferenceable(32) ptr @_ZNK32pxrInternal_v0_24__pxrReserved__12TsLoopParams17GetMasterIntervalEv(ptr noundef nonnull align 8 dereferenceable(80) %16)
  %18 = load double, ptr %4, align 8
  %19 = call noundef zeroext i1 @_ZNK32pxrInternal_v0_24__pxrReserved__10GfInterval8ContainsEd(ptr noundef nonnull align 8 dereferenceable(32) %17, double noundef %18)
  %20 = xor i1 %19, true
  br label %21

21:                                               ; preds = %15, %10, %2
  %22 = phi i1 [ false, %10 ], [ false, %2 ], [ %20, %15 ]
  ret i1 %22
}