; Function Attrs: mustprogress uwtable
define noundef zeroext i1 @_ZNK32pxrInternal_v0_24__pxrReserved__8TsSpline12IsTimeLoopedEd(ptr nocapture noundef nonnull readonly align 8 dereferenceable(16) %0, double noundef %1) local_unnamed_addr #3 align 2 {
  %3 = alloca %"class.pxrInternal_v0_24__pxrReserved__::TsLoopParams", align 8
  %4 = load ptr, ptr %0, align 8, !noalias !45
  %5 = tail call noundef nonnull align 8 dereferenceable(80) ptr @_ZNK32pxrInternal_v0_24__pxrReserved__18TsSpline_KeyFrames13GetLoopParamsEv(ptr noundef nonnull align 8 dereferenceable(136) %4), !noalias !45
  call void @llvm.memcpy.p0.p0.i64(ptr noundef nonnull align 8 dereferenceable(80) %3, ptr noundef nonnull align 8 dereferenceable(80) %5, i64 80, i1 false)
  %6 = call noundef zeroext i1 @_ZNK32pxrInternal_v0_24__pxrReserved__12TsLoopParams10GetLoopingEv(ptr noundef nonnull align 8 dereferenceable(80) %3)
  br i1 %6, label %7, label %_ZNK32pxrInternal_v0_24__pxrReserved__10GfInterval8ContainsEd.exit.thread

7:                                                ; preds = %2
  %8 = call noundef nonnull align 8 dereferenceable(32) ptr @_ZNK32pxrInternal_v0_24__pxrReserved__12TsLoopParams17GetLoopedIntervalEv(ptr noundef nonnull align 8 dereferenceable(80) %3)
  %9 = load double, ptr %8, align 8
  %10 = fcmp ogt double %1, %9
  br i1 %10, label %17, label %11

11:                                               ; preds = %7
  %12 = fcmp oeq double %1, %9
  br i1 %12, label %13, label %_ZNK32pxrInternal_v0_24__pxrReserved__10GfInterval8ContainsEd.exit.thread

13:                                               ; preds = %11
  %14 = getelementptr inbounds nuw i8, ptr %8, i64 8
  %15 = load i8, ptr %14, align 8
  %16 = trunc i8 %15 to i1
  br i1 %16, label %17, label %_ZNK32pxrInternal_v0_24__pxrReserved__10GfInterval8ContainsEd.exit.thread

17:                                               ; preds = %13, %7
  %18 = getelementptr inbounds nuw i8, ptr %8, i64 16
  %19 = load double, ptr %18, align 8
  %20 = fcmp olt double %1, %19
  br i1 %20, label %_ZNK32pxrInternal_v0_24__pxrReserved__10GfInterval8ContainsEd.exit.thread7, label %21

21:                                               ; preds = %17
  %22 = fcmp oeq double %1, %19
  br i1 %22, label %_ZNK32pxrInternal_v0_24__pxrReserved__10GfInterval8ContainsEd.exit, label %_ZNK32pxrInternal_v0_24__pxrReserved__10GfInterval8ContainsEd.exit.thread

_ZNK32pxrInternal_v0_24__pxrReserved__10GfInterval8ContainsEd.exit: ; preds = %21
  %23 = getelementptr inbounds i8, ptr %8, i64 24
  %24 = load i8, ptr %23, align 8
  %25 = trunc i8 %24 to i1
  br i1 %25, label %_ZNK32pxrInternal_v0_24__pxrReserved__10GfInterval8ContainsEd.exit.thread7, label %_ZNK32pxrInternal_v0_24__pxrReserved__10GfInterval8ContainsEd.exit.thread

_ZNK32pxrInternal_v0_24__pxrReserved__10GfInterval8ContainsEd.exit.thread7: ; preds = %17, %_ZNK32pxrInternal_v0_24__pxrReserved__10GfInterval8ContainsEd.exit
  %26 = call noundef nonnull align 8 dereferenceable(32) ptr @_ZNK32pxrInternal_v0_24__pxrReserved__12TsLoopParams17GetMasterIntervalEv(ptr noundef nonnull align 8 dereferenceable(80) %3)
  %27 = load double, ptr %26, align 8
  %28 = fcmp ogt double %1, %27
  br i1 %28, label %35, label %29

29:                                               ; preds = %_ZNK32pxrInternal_v0_24__pxrReserved__10GfInterval8ContainsEd.exit.thread7
  %30 = fcmp oeq double %1, %27
  br i1 %30, label %31, label %_ZNK32pxrInternal_v0_24__pxrReserved__10GfInterval8ContainsEd.exit.thread

31:                                               ; preds = %29
  %32 = getelementptr inbounds nuw i8, ptr %26, i64 8
  %33 = load i8, ptr %32, align 8
  %34 = trunc i8 %33 to i1
  br i1 %34, label %35, label %_ZNK32pxrInternal_v0_24__pxrReserved__10GfInterval8ContainsEd.exit.thread

35:                                               ; preds = %31, %_ZNK32pxrInternal_v0_24__pxrReserved__10GfInterval8ContainsEd.exit.thread7
  %36 = getelementptr inbounds nuw i8, ptr %26, i64 16
  %37 = load double, ptr %36, align 8
  %38 = fcmp olt double %1, %37
  br i1 %38, label %_ZNK32pxrInternal_v0_24__pxrReserved__10GfInterval8ContainsEd.exit.thread, label %39

39:                                               ; preds = %35
  %40 = fcmp oeq double %1, %37
  br i1 %40, label %41, label %_ZNK32pxrInternal_v0_24__pxrReserved__10GfInterval8ContainsEd.exit.thread

41:                                               ; preds = %39
  %42 = getelementptr inbounds i8, ptr %26, i64 24
  %43 = load i8, ptr %42, align 8
  %44 = trunc i8 %43 to i1
  %45 = xor i1 %44, true
  br label %_ZNK32pxrInternal_v0_24__pxrReserved__10GfInterval8ContainsEd.exit.thread

_ZNK32pxrInternal_v0_24__pxrReserved__10GfInterval8ContainsEd.exit.thread: ; preds = %41, %39, %35, %31, %29, %21, %11, %13, %_ZNK32pxrInternal_v0_24__pxrReserved__10GfInterval8ContainsEd.exit, %2
  %46 = phi i1 [ false, %_ZNK32pxrInternal_v0_24__pxrReserved__10GfInterval8ContainsEd.exit ], [ false, %2 ], [ false, %13 ], [ false, %11 ], [ false, %21 ], [ true, %31 ], [ true, %29 ], [ false, %35 ], [ true, %39 ], [ %45, %41 ]
  ret i1 %46
}